
dll:     file format elf32-i386


Disassembly of section .init:

08049000 <_init>:
 8049000:	53                   	push   %ebx
 8049001:	83 ec 08             	sub    $0x8,%esp
 8049004:	e8 f7 00 00 00       	call   8049100 <__x86.get_pc_thunk.bx>
 8049009:	81 c3 2f 23 00 00    	add    $0x232f,%ebx
 804900f:	8b 83 fc ff ff ff    	mov    -0x4(%ebx),%eax
 8049015:	85 c0                	test   %eax,%eax
 8049017:	74 02                	je     804901b <_init+0x1b>
 8049019:	ff d0                	call   *%eax
 804901b:	83 c4 08             	add    $0x8,%esp
 804901e:	5b                   	pop    %ebx
 804901f:	c3                   	ret

Disassembly of section .plt:

08049020 <_Znwj@plt-0x10>:
 8049020:	ff 35 3c b3 04 08    	push   0x804b33c
 8049026:	ff 25 40 b3 04 08    	jmp    *0x804b340
 804902c:	00 00                	add    %al,(%eax)
	...

08049030 <_Znwj@plt>:
 8049030:	ff 25 44 b3 04 08    	jmp    *0x804b344
 8049036:	68 00 00 00 00       	push   $0x0
 804903b:	e9 e0 ff ff ff       	jmp    8049020 <_init+0x20>

08049040 <_ZSt4endlIcSt11char_traitsIcEERSt13basic_ostreamIT_T0_ES6_@plt>:
 8049040:	ff 25 48 b3 04 08    	jmp    *0x804b348
 8049046:	68 08 00 00 00       	push   $0x8
 804904b:	e9 d0 ff ff ff       	jmp    8049020 <_init+0x20>

08049050 <__cxa_atexit@plt>:
 8049050:	ff 25 4c b3 04 08    	jmp    *0x804b34c
 8049056:	68 10 00 00 00       	push   $0x10
 804905b:	e9 c0 ff ff ff       	jmp    8049020 <_init+0x20>

08049060 <__libc_start_main@plt>:
 8049060:	ff 25 50 b3 04 08    	jmp    *0x804b350
 8049066:	68 18 00 00 00       	push   $0x18
 804906b:	e9 b0 ff ff ff       	jmp    8049020 <_init+0x20>

08049070 <strncpy@plt>:
 8049070:	ff 25 54 b3 04 08    	jmp    *0x804b354
 8049076:	68 20 00 00 00       	push   $0x20
 804907b:	e9 a0 ff ff ff       	jmp    8049020 <_init+0x20>

08049080 <_ZStlsISt11char_traitsIcEERSt13basic_ostreamIcT_ES5_PKc@plt>:
 8049080:	ff 25 58 b3 04 08    	jmp    *0x804b358
 8049086:	68 28 00 00 00       	push   $0x28
 804908b:	e9 90 ff ff ff       	jmp    8049020 <_init+0x20>

08049090 <_ZNSolsEPFRSoS_E@plt>:
 8049090:	ff 25 5c b3 04 08    	jmp    *0x804b35c
 8049096:	68 30 00 00 00       	push   $0x30
 804909b:	e9 80 ff ff ff       	jmp    8049020 <_init+0x20>

080490a0 <_ZNSt8ios_base4InitC1Ev@plt>:
 80490a0:	ff 25 60 b3 04 08    	jmp    *0x804b360
 80490a6:	68 38 00 00 00       	push   $0x38
 80490ab:	e9 70 ff ff ff       	jmp    8049020 <_init+0x20>

080490b0 <_ZNSt8ios_base4InitD1Ev@plt>:
 80490b0:	ff 25 64 b3 04 08    	jmp    *0x804b364
 80490b6:	68 40 00 00 00       	push   $0x40
 80490bb:	e9 60 ff ff ff       	jmp    8049020 <_init+0x20>

Disassembly of section .text:

080490c0 <_start>:
 80490c0:	31 ed                	xor    %ebp,%ebp
 80490c2:	5e                   	pop    %esi
 80490c3:	89 e1                	mov    %esp,%ecx
 80490c5:	83 e4 f0             	and    $0xfffffff0,%esp
 80490c8:	50                   	push   %eax
 80490c9:	54                   	push   %esp
 80490ca:	52                   	push   %edx
 80490cb:	e8 19 00 00 00       	call   80490e9 <_start+0x29>
 80490d0:	81 c3 68 22 00 00    	add    $0x2268,%ebx
 80490d6:	6a 00                	push   $0x0
 80490d8:	6a 00                	push   $0x0
 80490da:	51                   	push   %ecx
 80490db:	56                   	push   %esi
 80490dc:	c7 c0 c2 91 04 08    	mov    $0x80491c2,%eax
 80490e2:	50                   	push   %eax
 80490e3:	e8 78 ff ff ff       	call   8049060 <__libc_start_main@plt>
 80490e8:	f4                   	hlt
 80490e9:	8b 1c 24             	mov    (%esp),%ebx
 80490ec:	c3                   	ret
 80490ed:	66 90                	xchg   %ax,%ax
 80490ef:	90                   	nop

080490f0 <_dl_relocate_static_pie>:
 80490f0:	c3                   	ret
 80490f1:	66 90                	xchg   %ax,%ax
 80490f3:	66 90                	xchg   %ax,%ax
 80490f5:	66 90                	xchg   %ax,%ax
 80490f7:	66 90                	xchg   %ax,%ax
 80490f9:	66 90                	xchg   %ax,%ax
 80490fb:	66 90                	xchg   %ax,%ax
 80490fd:	66 90                	xchg   %ax,%ax
 80490ff:	90                   	nop

08049100 <__x86.get_pc_thunk.bx>:
 8049100:	8b 1c 24             	mov    (%esp),%ebx
 8049103:	c3                   	ret
 8049104:	66 90                	xchg   %ax,%ax
 8049106:	66 90                	xchg   %ax,%ax
 8049108:	66 90                	xchg   %ax,%ax
 804910a:	66 90                	xchg   %ax,%ax
 804910c:	66 90                	xchg   %ax,%ax
 804910e:	66 90                	xchg   %ax,%ax

08049110 <deregister_tm_clones>:
 8049110:	b8 70 b3 04 08       	mov    $0x804b370,%eax
 8049115:	3d 70 b3 04 08       	cmp    $0x804b370,%eax
 804911a:	74 24                	je     8049140 <deregister_tm_clones+0x30>
 804911c:	b8 00 00 00 00       	mov    $0x0,%eax
 8049121:	85 c0                	test   %eax,%eax
 8049123:	74 1b                	je     8049140 <deregister_tm_clones+0x30>
 8049125:	55                   	push   %ebp
 8049126:	89 e5                	mov    %esp,%ebp
 8049128:	83 ec 14             	sub    $0x14,%esp
 804912b:	68 70 b3 04 08       	push   $0x804b370
 8049130:	ff d0                	call   *%eax
 8049132:	83 c4 10             	add    $0x10,%esp
 8049135:	c9                   	leave
 8049136:	c3                   	ret
 8049137:	8d b4 26 00 00 00 00 	lea    0x0(%esi,%eiz,1),%esi
 804913e:	66 90                	xchg   %ax,%ax
 8049140:	c3                   	ret
 8049141:	8d b4 26 00 00 00 00 	lea    0x0(%esi,%eiz,1),%esi
 8049148:	8d b4 26 00 00 00 00 	lea    0x0(%esi,%eiz,1),%esi
 804914f:	90                   	nop

08049150 <register_tm_clones>:
 8049150:	b8 70 b3 04 08       	mov    $0x804b370,%eax
 8049155:	2d 70 b3 04 08       	sub    $0x804b370,%eax
 804915a:	89 c2                	mov    %eax,%edx
 804915c:	c1 e8 1f             	shr    $0x1f,%eax
 804915f:	c1 fa 02             	sar    $0x2,%edx
 8049162:	01 d0                	add    %edx,%eax
 8049164:	d1 f8                	sar    %eax
 8049166:	74 20                	je     8049188 <register_tm_clones+0x38>
 8049168:	ba 00 00 00 00       	mov    $0x0,%edx
 804916d:	85 d2                	test   %edx,%edx
 804916f:	74 17                	je     8049188 <register_tm_clones+0x38>
 8049171:	55                   	push   %ebp
 8049172:	89 e5                	mov    %esp,%ebp
 8049174:	83 ec 10             	sub    $0x10,%esp
 8049177:	50                   	push   %eax
 8049178:	68 70 b3 04 08       	push   $0x804b370
 804917d:	ff d2                	call   *%edx
 804917f:	83 c4 10             	add    $0x10,%esp
 8049182:	c9                   	leave
 8049183:	c3                   	ret
 8049184:	8d 74 26 00          	lea    0x0(%esi,%eiz,1),%esi
 8049188:	c3                   	ret
 8049189:	8d b4 26 00 00 00 00 	lea    0x0(%esi,%eiz,1),%esi

08049190 <__do_global_dtors_aux>:
 8049190:	80 3d 0c b4 04 08 00 	cmpb   $0x0,0x804b40c
 8049197:	75 17                	jne    80491b0 <__do_global_dtors_aux+0x20>
 8049199:	55                   	push   %ebp
 804919a:	89 e5                	mov    %esp,%ebp
 804919c:	83 ec 08             	sub    $0x8,%esp
 804919f:	e8 6c ff ff ff       	call   8049110 <deregister_tm_clones>
 80491a4:	c6 05 0c b4 04 08 01 	movb   $0x1,0x804b40c
 80491ab:	c9                   	leave
 80491ac:	c3                   	ret
 80491ad:	8d 76 00             	lea    0x0(%esi),%esi
 80491b0:	c3                   	ret
 80491b1:	8d b4 26 00 00 00 00 	lea    0x0(%esi,%eiz,1),%esi
 80491b8:	8d b4 26 00 00 00 00 	lea    0x0(%esi,%eiz,1),%esi
 80491bf:	90                   	nop

080491c0 <frame_dummy>:
 80491c0:	eb 8e                	jmp    8049150 <register_tm_clones>

080491c2 <main>:
 80491c2:	55                   	push   %ebp
 80491c3:	89 e5                	mov    %esp,%ebp
 80491c5:	83 ec 0c             	sub    $0xc,%esp
 80491c8:	8d 45 f4             	lea    -0xc(%ebp),%eax
 80491cb:	50                   	push   %eax
 80491cc:	e8 4b 01 00 00       	call   804931c <_ZN3DLLC1Ev>
 80491d1:	83 c4 04             	add    $0x4,%esp
 80491d4:	68 0a a0 04 08       	push   $0x804a00a
 80491d9:	8d 45 f4             	lea    -0xc(%ebp),%eax
 80491dc:	50                   	push   %eax
 80491dd:	e8 5e 01 00 00       	call   8049340 <_ZN3DLL3AddEPKc>
 80491e2:	83 c4 08             	add    $0x8,%esp
 80491e5:	68 0f a0 04 08       	push   $0x804a00f
 80491ea:	8d 45 f4             	lea    -0xc(%ebp),%eax
 80491ed:	50                   	push   %eax
 80491ee:	e8 4d 01 00 00       	call   8049340 <_ZN3DLL3AddEPKc>
 80491f3:	83 c4 08             	add    $0x8,%esp
 80491f6:	68 14 a0 04 08       	push   $0x804a014
 80491fb:	8d 45 f4             	lea    -0xc(%ebp),%eax
 80491fe:	50                   	push   %eax
 80491ff:	e8 3c 01 00 00       	call   8049340 <_ZN3DLL3AddEPKc>
 8049204:	83 c4 08             	add    $0x8,%esp
 8049207:	68 18 a0 04 08       	push   $0x804a018
 804920c:	8d 45 f4             	lea    -0xc(%ebp),%eax
 804920f:	50                   	push   %eax
 8049210:	e8 2b 01 00 00       	call   8049340 <_ZN3DLL3AddEPKc>
 8049215:	83 c4 08             	add    $0x8,%esp
 8049218:	68 1e a0 04 08       	push   $0x804a01e
 804921d:	8d 45 f4             	lea    -0xc(%ebp),%eax
 8049220:	50                   	push   %eax
 8049221:	e8 1a 01 00 00       	call   8049340 <_ZN3DLL3AddEPKc>
 8049226:	83 c4 08             	add    $0x8,%esp
 8049229:	68 21 a0 04 08       	push   $0x804a021
 804922e:	8d 45 f4             	lea    -0xc(%ebp),%eax
 8049231:	50                   	push   %eax
 8049232:	e8 09 01 00 00       	call   8049340 <_ZN3DLL3AddEPKc>
 8049237:	83 c4 08             	add    $0x8,%esp
 804923a:	68 23 a0 04 08       	push   $0x804a023
 804923f:	68 80 b3 04 08       	push   $0x804b380
 8049244:	e8 37 fe ff ff       	call   8049080 <_ZStlsISt11char_traitsIcEERSt13basic_ostreamIcT_ES5_PKc@plt>
 8049249:	83 c4 08             	add    $0x8,%esp
 804924c:	8d 45 f4             	lea    -0xc(%ebp),%eax
 804924f:	50                   	push   %eax
 8049250:	e8 6b 01 00 00       	call   80493c0 <_ZN3DLL5PrintEv>
 8049255:	83 c4 04             	add    $0x4,%esp
 8049258:	6a 02                	push   $0x2
 804925a:	8d 45 f4             	lea    -0xc(%ebp),%eax
 804925d:	50                   	push   %eax
 804925e:	e8 b3 01 00 00       	call   8049416 <_ZN3DLL6RemoveEi>
 8049263:	83 c4 08             	add    $0x8,%esp
 8049266:	68 32 a0 04 08       	push   $0x804a032
 804926b:	68 80 b3 04 08       	push   $0x804b380
 8049270:	e8 0b fe ff ff       	call   8049080 <_ZStlsISt11char_traitsIcEERSt13basic_ostreamIcT_ES5_PKc@plt>
 8049275:	83 c4 08             	add    $0x8,%esp
 8049278:	8d 45 f4             	lea    -0xc(%ebp),%eax
 804927b:	50                   	push   %eax
 804927c:	e8 3f 01 00 00       	call   80493c0 <_ZN3DLL5PrintEv>
 8049281:	83 c4 04             	add    $0x4,%esp
 8049284:	b8 00 00 00 00       	mov    $0x0,%eax
 8049289:	c9                   	leave
 804928a:	c3                   	ret

0804928b <_Z41__static_initialization_and_destruction_0ii>:
 804928b:	55                   	push   %ebp
 804928c:	89 e5                	mov    %esp,%ebp
 804928e:	83 7d 08 01          	cmpl   $0x1,0x8(%ebp)
 8049292:	75 2d                	jne    80492c1 <_Z41__static_initialization_and_destruction_0ii+0x36>
 8049294:	81 7d 0c ff ff 00 00 	cmpl   $0xffff,0xc(%ebp)
 804929b:	75 24                	jne    80492c1 <_Z41__static_initialization_and_destruction_0ii+0x36>
 804929d:	68 0d b4 04 08       	push   $0x804b40d
 80492a2:	e8 f9 fd ff ff       	call   80490a0 <_ZNSt8ios_base4InitC1Ev@plt>
 80492a7:	83 c4 04             	add    $0x4,%esp
 80492aa:	68 6c b3 04 08       	push   $0x804b36c
 80492af:	68 0d b4 04 08       	push   $0x804b40d
 80492b4:	68 b0 90 04 08       	push   $0x80490b0
 80492b9:	e8 92 fd ff ff       	call   8049050 <__cxa_atexit@plt>
 80492be:	83 c4 0c             	add    $0xc,%esp
 80492c1:	90                   	nop
 80492c2:	c9                   	leave
 80492c3:	c3                   	ret

080492c4 <_GLOBAL__sub_I_main>:
 80492c4:	55                   	push   %ebp
 80492c5:	89 e5                	mov    %esp,%ebp
 80492c7:	68 ff ff 00 00       	push   $0xffff
 80492cc:	6a 01                	push   $0x1
 80492ce:	e8 b8 ff ff ff       	call   804928b <_Z41__static_initialization_and_destruction_0ii>
 80492d3:	83 c4 08             	add    $0x8,%esp
 80492d6:	c9                   	leave
 80492d7:	c3                   	ret

080492d8 <_ZN4NodeC1EPKc>:
 80492d8:	55                   	push   %ebp
 80492d9:	89 e5                	mov    %esp,%ebp
 80492db:	8b 45 08             	mov    0x8(%ebp),%eax
 80492de:	68 ff 00 00 00       	push   $0xff
 80492e3:	ff 75 0c             	push   0xc(%ebp)
 80492e6:	50                   	push   %eax
 80492e7:	e8 84 fd ff ff       	call   8049070 <strncpy@plt>
 80492ec:	83 c4 0c             	add    $0xc,%esp
 80492ef:	8b 45 08             	mov    0x8(%ebp),%eax
 80492f2:	c6 80 ff 00 00 00 00 	movb   $0x0,0xff(%eax)
 80492f9:	8b 45 08             	mov    0x8(%ebp),%eax
 80492fc:	c7 80 04 01 00 00 00 	movl   $0x0,0x104(%eax)
 8049303:	00 00 00 
 8049306:	8b 45 08             	mov    0x8(%ebp),%eax
 8049309:	8b 90 04 01 00 00    	mov    0x104(%eax),%edx
 804930f:	8b 45 08             	mov    0x8(%ebp),%eax
 8049312:	89 90 00 01 00 00    	mov    %edx,0x100(%eax)
 8049318:	90                   	nop
 8049319:	c9                   	leave
 804931a:	c3                   	ret
 804931b:	90                   	nop

0804931c <_ZN3DLLC1Ev>:
 804931c:	55                   	push   %ebp
 804931d:	89 e5                	mov    %esp,%ebp
 804931f:	8b 45 08             	mov    0x8(%ebp),%eax
 8049322:	c7 00 00 00 00 00    	movl   $0x0,(%eax)
 8049328:	8b 45 08             	mov    0x8(%ebp),%eax
 804932b:	c7 40 04 00 00 00 00 	movl   $0x0,0x4(%eax)
 8049332:	8b 45 08             	mov    0x8(%ebp),%eax
 8049335:	c7 40 08 00 00 00 00 	movl   $0x0,0x8(%eax)
 804933c:	90                   	nop
 804933d:	5d                   	pop    %ebp
 804933e:	c3                   	ret
 804933f:	90                   	nop

08049340 <_ZN3DLL3AddEPKc>:
 8049340:	55                   	push   %ebp
 8049341:	89 e5                	mov    %esp,%ebp
 8049343:	53                   	push   %ebx
 8049344:	83 ec 04             	sub    $0x4,%esp
 8049347:	68 08 01 00 00       	push   $0x108
 804934c:	e8 df fc ff ff       	call   8049030 <_Znwj@plt>
 8049351:	83 c4 04             	add    $0x4,%esp
 8049354:	89 c3                	mov    %eax,%ebx
 8049356:	ff 75 0c             	push   0xc(%ebp)
 8049359:	53                   	push   %ebx
 804935a:	e8 79 ff ff ff       	call   80492d8 <_ZN4NodeC1EPKc>
 804935f:	83 c4 08             	add    $0x8,%esp
 8049362:	89 5d f8             	mov    %ebx,-0x8(%ebp)
 8049365:	8b 45 08             	mov    0x8(%ebp),%eax
 8049368:	8b 00                	mov    (%eax),%eax
 804936a:	85 c0                	test   %eax,%eax
 804936c:	75 16                	jne    8049384 <_ZN3DLL3AddEPKc+0x44>
 804936e:	8b 45 08             	mov    0x8(%ebp),%eax
 8049371:	8b 55 f8             	mov    -0x8(%ebp),%edx
 8049374:	89 50 04             	mov    %edx,0x4(%eax)
 8049377:	8b 45 08             	mov    0x8(%ebp),%eax
 804937a:	8b 50 04             	mov    0x4(%eax),%edx
 804937d:	8b 45 08             	mov    0x8(%ebp),%eax
 8049380:	89 10                	mov    %edx,(%eax)
 8049382:	eb 27                	jmp    80493ab <_ZN3DLL3AddEPKc+0x6b>
 8049384:	8b 45 08             	mov    0x8(%ebp),%eax
 8049387:	8b 40 04             	mov    0x4(%eax),%eax
 804938a:	8b 55 f8             	mov    -0x8(%ebp),%edx
 804938d:	89 90 04 01 00 00    	mov    %edx,0x104(%eax)
 8049393:	8b 45 08             	mov    0x8(%ebp),%eax
 8049396:	8b 50 04             	mov    0x4(%eax),%edx
 8049399:	8b 45 f8             	mov    -0x8(%ebp),%eax
 804939c:	89 90 00 01 00 00    	mov    %edx,0x100(%eax)
 80493a2:	8b 45 08             	mov    0x8(%ebp),%eax
 80493a5:	8b 55 f8             	mov    -0x8(%ebp),%edx
 80493a8:	89 50 04             	mov    %edx,0x4(%eax)
 80493ab:	8b 45 08             	mov    0x8(%ebp),%eax
 80493ae:	8b 40 08             	mov    0x8(%eax),%eax
 80493b1:	8d 50 01             	lea    0x1(%eax),%edx
 80493b4:	8b 45 08             	mov    0x8(%ebp),%eax
 80493b7:	89 50 08             	mov    %edx,0x8(%eax)
 80493ba:	90                   	nop
 80493bb:	8b 5d fc             	mov    -0x4(%ebp),%ebx
 80493be:	c9                   	leave
 80493bf:	c3                   	ret

080493c0 <_ZN3DLL5PrintEv>:
 80493c0:	55                   	push   %ebp
 80493c1:	89 e5                	mov    %esp,%ebp
 80493c3:	83 ec 04             	sub    $0x4,%esp
 80493c6:	8b 45 08             	mov    0x8(%ebp),%eax
 80493c9:	8b 00                	mov    (%eax),%eax
 80493cb:	89 45 fc             	mov    %eax,-0x4(%ebp)
 80493ce:	eb 2b                	jmp    80493fb <_ZN3DLL5PrintEv+0x3b>
 80493d0:	8b 45 fc             	mov    -0x4(%ebp),%eax
 80493d3:	50                   	push   %eax
 80493d4:	68 80 b3 04 08       	push   $0x804b380
 80493d9:	e8 a2 fc ff ff       	call   8049080 <_ZStlsISt11char_traitsIcEERSt13basic_ostreamIcT_ES5_PKc@plt>
 80493de:	83 c4 08             	add    $0x8,%esp
 80493e1:	68 08 a0 04 08       	push   $0x804a008
 80493e6:	50                   	push   %eax
 80493e7:	e8 94 fc ff ff       	call   8049080 <_ZStlsISt11char_traitsIcEERSt13basic_ostreamIcT_ES5_PKc@plt>
 80493ec:	83 c4 08             	add    $0x8,%esp
 80493ef:	8b 45 fc             	mov    -0x4(%ebp),%eax
 80493f2:	8b 80 04 01 00 00    	mov    0x104(%eax),%eax
 80493f8:	89 45 fc             	mov    %eax,-0x4(%ebp)
 80493fb:	83 7d fc 00          	cmpl   $0x0,-0x4(%ebp)
 80493ff:	75 cf                	jne    80493d0 <_ZN3DLL5PrintEv+0x10>
 8049401:	68 40 90 04 08       	push   $0x8049040
 8049406:	68 80 b3 04 08       	push   $0x804b380
 804940b:	e8 80 fc ff ff       	call   8049090 <_ZNSolsEPFRSoS_E@plt>
 8049410:	83 c4 08             	add    $0x8,%esp
 8049413:	90                   	nop
 8049414:	c9                   	leave
 8049415:	c3                   	ret

08049416 <_ZN3DLL6RemoveEi>:
 8049416:	55                   	push   %ebp
 8049417:	89 e5                	mov    %esp,%ebp
 8049419:	83 ec 08             	sub    $0x8,%esp
 804941c:	8b 45 08             	mov    0x8(%ebp),%eax
 804941f:	8b 00                	mov    (%eax),%eax
 8049421:	85 c0                	test   %eax,%eax
 8049423:	0f 84 d0 00 00 00    	je     80494f9 <_ZN3DLL6RemoveEi+0xe3>
 8049429:	83 7d 0c 00          	cmpl   $0x0,0xc(%ebp)
 804942d:	0f 88 c6 00 00 00    	js     80494f9 <_ZN3DLL6RemoveEi+0xe3>
 8049433:	8b 45 08             	mov    0x8(%ebp),%eax
 8049436:	8b 00                	mov    (%eax),%eax
 8049438:	89 45 fc             	mov    %eax,-0x4(%ebp)
 804943b:	c7 45 f8 00 00 00 00 	movl   $0x0,-0x8(%ebp)
 8049442:	eb 10                	jmp    8049454 <_ZN3DLL6RemoveEi+0x3e>
 8049444:	8b 45 fc             	mov    -0x4(%ebp),%eax
 8049447:	8b 80 04 01 00 00    	mov    0x104(%eax),%eax
 804944d:	89 45 fc             	mov    %eax,-0x4(%ebp)
 8049450:	83 45 f8 01          	addl   $0x1,-0x8(%ebp)
 8049454:	83 7d fc 00          	cmpl   $0x0,-0x4(%ebp)
 8049458:	74 08                	je     8049462 <_ZN3DLL6RemoveEi+0x4c>
 804945a:	8b 45 f8             	mov    -0x8(%ebp),%eax
 804945d:	3b 45 0c             	cmp    0xc(%ebp),%eax
 8049460:	7c e2                	jl     8049444 <_ZN3DLL6RemoveEi+0x2e>
 8049462:	83 7d fc 00          	cmpl   $0x0,-0x4(%ebp)
 8049466:	0f 84 90 00 00 00    	je     80494fc <_ZN3DLL6RemoveEi+0xe6>
 804946c:	8b 45 fc             	mov    -0x4(%ebp),%eax
 804946f:	8b 80 00 01 00 00    	mov    0x100(%eax),%eax
 8049475:	85 c0                	test   %eax,%eax
 8049477:	74 18                	je     8049491 <_ZN3DLL6RemoveEi+0x7b>
 8049479:	8b 45 fc             	mov    -0x4(%ebp),%eax
 804947c:	8b 80 00 01 00 00    	mov    0x100(%eax),%eax
 8049482:	8b 55 fc             	mov    -0x4(%ebp),%edx
 8049485:	8b 92 04 01 00 00    	mov    0x104(%edx),%edx
 804948b:	89 90 04 01 00 00    	mov    %edx,0x104(%eax)
 8049491:	8b 45 fc             	mov    -0x4(%ebp),%eax
 8049494:	8b 80 04 01 00 00    	mov    0x104(%eax),%eax
 804949a:	85 c0                	test   %eax,%eax
 804949c:	74 18                	je     80494b6 <_ZN3DLL6RemoveEi+0xa0>
 804949e:	8b 45 fc             	mov    -0x4(%ebp),%eax
 80494a1:	8b 80 04 01 00 00    	mov    0x104(%eax),%eax
 80494a7:	8b 55 fc             	mov    -0x4(%ebp),%edx
 80494aa:	8b 92 00 01 00 00    	mov    0x100(%edx),%edx
 80494b0:	89 90 00 01 00 00    	mov    %edx,0x100(%eax)
 80494b6:	8b 45 08             	mov    0x8(%ebp),%eax
 80494b9:	8b 00                	mov    (%eax),%eax
 80494bb:	39 45 fc             	cmp    %eax,-0x4(%ebp)
 80494be:	75 0e                	jne    80494ce <_ZN3DLL6RemoveEi+0xb8>
 80494c0:	8b 45 fc             	mov    -0x4(%ebp),%eax
 80494c3:	8b 90 04 01 00 00    	mov    0x104(%eax),%edx
 80494c9:	8b 45 08             	mov    0x8(%ebp),%eax
 80494cc:	89 10                	mov    %edx,(%eax)
 80494ce:	8b 45 08             	mov    0x8(%ebp),%eax
 80494d1:	8b 40 04             	mov    0x4(%eax),%eax
 80494d4:	39 45 fc             	cmp    %eax,-0x4(%ebp)
 80494d7:	75 0f                	jne    80494e8 <_ZN3DLL6RemoveEi+0xd2>
 80494d9:	8b 45 fc             	mov    -0x4(%ebp),%eax
 80494dc:	8b 90 00 01 00 00    	mov    0x100(%eax),%edx
 80494e2:	8b 45 08             	mov    0x8(%ebp),%eax
 80494e5:	89 50 04             	mov    %edx,0x4(%eax)
 80494e8:	8b 45 08             	mov    0x8(%ebp),%eax
 80494eb:	8b 40 08             	mov    0x8(%eax),%eax
 80494ee:	8d 50 ff             	lea    -0x1(%eax),%edx
 80494f1:	8b 45 08             	mov    0x8(%ebp),%eax
 80494f4:	89 50 08             	mov    %edx,0x8(%eax)
 80494f7:	eb 04                	jmp    80494fd <_ZN3DLL6RemoveEi+0xe7>
 80494f9:	90                   	nop
 80494fa:	eb 01                	jmp    80494fd <_ZN3DLL6RemoveEi+0xe7>
 80494fc:	90                   	nop
 80494fd:	c9                   	leave
 80494fe:	c3                   	ret

Disassembly of section .fini:

08049500 <_fini>:
 8049500:	53                   	push   %ebx
 8049501:	83 ec 08             	sub    $0x8,%esp
 8049504:	e8 f7 fb ff ff       	call   8049100 <__x86.get_pc_thunk.bx>
 8049509:	81 c3 2f 1e 00 00    	add    $0x1e2f,%ebx
 804950f:	83 c4 08             	add    $0x8,%esp
 8049512:	5b                   	pop    %ebx
 8049513:	c3                   	ret
